; Function Attrs: nounwind uwtable
define ptr @l_Lake_Toml_tomlCore_formatter(ptr noundef %0, ptr noundef %1, ptr noundef %2, ptr noundef %3, ptr noundef %4, ptr noundef %5) local_unnamed_addr #1 {
  tail call void @lean_inc_heartbeat() #4
  %7 = tail call noalias ptr @mi_malloc_small(i64 noundef 32) #4
  %8 = icmp eq ptr %7, null
  br i1 %8, label %9, label %lean_alloc_closure.exit

9:                                                ; preds = %6
  tail call void @lean_internal_panic_out_of_memory() #5
  unreachable

lean_alloc_closure.exit:                          ; preds = %6
  %10 = getelementptr inbounds nuw i8, ptr %7, i64 4
  store i32 1, ptr %7, align 4, !tbaa !4
  store i32 -184549344, ptr %10, align 4
  %11 = getelementptr inbounds nuw i8, ptr %7, i64 8
  store ptr @l_Lake_Toml_expressionCore_formatter, ptr %11, align 8, !tbaa !10
  %12 = getelementptr inbounds nuw i8, ptr %7, i64 16
  store i16 6, ptr %12, align 8, !tbaa !18
  %13 = getelementptr inbounds nuw i8, ptr %7, i64 18
  store i16 1, ptr %13, align 2, !tbaa !18
  %14 = getelementptr inbounds nuw i8, ptr %7, i64 24
  store ptr %0, ptr %14, align 8, !tbaa !10
  %15 = load ptr, ptr @l_Lake_Toml_tomlCore_formatter___closed__1, align 8, !tbaa !10
  tail call void @lean_inc_heartbeat() #4
  %16 = tail call noalias ptr @mi_malloc_small(i64 noundef 40) #4
  %17 = icmp eq ptr %16, null
  br i1 %17, label %18, label %lean_alloc_closure.exit24

18:                                               ; preds = %lean_alloc_closure.exit
  tail call void @lean_internal_panic_out_of_memory() #5
  unreachable

lean_alloc_closure.exit24:                        ; preds = %lean_alloc_closure.exit
  %19 = getelementptr inbounds nuw i8, ptr %16, i64 4
  store i32 1, ptr %16, align 4, !tbaa !4
  store i32 -184549336, ptr %19, align 4
  %20 = getelementptr inbounds nuw i8, ptr %16, i64 8
  store ptr @l_Lean_PrettyPrinter_Formatter_andthen_formatter, ptr %20, align 8, !tbaa !10
  %21 = getelementptr inbounds nuw i8, ptr %16, i64 16
  store i16 7, ptr %21, align 8, !tbaa !18
  %22 = getelementptr inbounds nuw i8, ptr %16, i64 18
  store i16 2, ptr %22, align 2, !tbaa !18
  %23 = getelementptr inbounds nuw i8, ptr %16, i64 24
  store ptr %7, ptr %23, align 8, !tbaa !10
  %24 = getelementptr inbounds nuw i8, ptr %16, i64 32
  store ptr %15, ptr %24, align 8, !tbaa !10
  tail call void @lean_inc_heartbeat() #4
  %25 = tail call noalias ptr @mi_malloc_small(i64 noundef 40) #4
  %26 = icmp eq ptr %25, null
  br i1 %26, label %27, label %lean_alloc_closure.exit25

27:                                               ; preds = %lean_alloc_closure.exit24
  tail call void @lean_internal_panic_out_of_memory() #5
  unreachable

lean_alloc_closure.exit25:                        ; preds = %lean_alloc_closure.exit24
  %28 = getelementptr inbounds nuw i8, ptr %25, i64 4
  store i32 1, ptr %25, align 4, !tbaa !4
  store i32 -184549336, ptr %28, align 4
  %29 = getelementptr inbounds nuw i8, ptr %25, i64 8
  store ptr @l_Lake_Toml_sepByLinebreak_formatter___boxed, ptr %29, align 8, !tbaa !10
  %30 = getelementptr inbounds nuw i8, ptr %25, i64 16
  store i16 7, ptr %30, align 8, !tbaa !18
  %31 = getelementptr inbounds nuw i8, ptr %25, i64 18
  store i16 2, ptr %31, align 2, !tbaa !18
  %32 = getelementptr inbounds nuw i8, ptr %25, i64 24
  store ptr %16, ptr %32, align 8, !tbaa !10
  %33 = getelementptr inbounds nuw i8, ptr %25, i64 32
  store ptr inttoptr (i64 3 to ptr), ptr %33, align 8, !tbaa !10
  %34 = load ptr, ptr @l_Lake_Toml_tomlCore_formatter___closed__2, align 8, !tbaa !10
  tail call void @lean_inc_heartbeat() #4
  %35 = tail call noalias ptr @mi_malloc_small(i64 noundef 40) #4
  %36 = icmp eq ptr %35, null
  br i1 %36, label %37, label %lean_alloc_closure.exit26

37:                                               ; preds = %lean_alloc_closure.exit25
  tail call void @lean_internal_panic_out_of_memory() #5
  unreachable

lean_alloc_closure.exit26:                        ; preds = %lean_alloc_closure.exit25
  %38 = getelementptr inbounds nuw i8, ptr %35, i64 4
  store i32 1, ptr %35, align 4, !tbaa !4
  store i32 -184549336, ptr %38, align 4
  %39 = getelementptr inbounds nuw i8, ptr %35, i64 8
  store ptr @l_Lean_PrettyPrinter_Formatter_andthen_formatter, ptr %39, align 8, !tbaa !10
  %40 = getelementptr inbounds nuw i8, ptr %35, i64 16
  store i16 7, ptr %40, align 8, !tbaa !18
  %41 = getelementptr inbounds nuw i8, ptr %35, i64 18
  store i16 2, ptr %41, align 2, !tbaa !18
  %42 = getelementptr inbounds nuw i8, ptr %35, i64 24
  store ptr %34, ptr %42, align 8, !tbaa !10
  %43 = getelementptr inbounds nuw i8, ptr %35, i64 32
  store ptr %25, ptr %43, align 8, !tbaa !10
  %44 = load ptr, ptr @l_Lake_Toml_tomlCore___closed__1, align 8, !tbaa !10
  %45 = load ptr, ptr @l_Lake_Toml_tomlCore___closed__2, align 8, !tbaa !10
  %46 = tail call ptr @l_Lean_Parser_nodeWithAntiquot_formatter(ptr noundef %44, ptr noundef %45, ptr noundef nonnull %35, i8 noundef zeroext 1, ptr noundef %1, ptr noundef %2, ptr noundef %3, ptr noundef %4, ptr noundef %5) #4
  ret ptr %46
}